target datalayout = "e-m:e-p270:32:32-p271:32:32-p272:64:64-i64:64-i128:128-f80:128-n8:16:32:64-S128"
target triple = "x86_64-pc-linux-gnu"

%"class.i18n::phonenumbers::UnicodeText::Repr" = type <{ ptr, i32, i32, i8, i8, [6 x i8] }>
%"class.i18n::phonenumbers::UnicodeText" = type { %"class.i18n::phonenumbers::UnicodeText::Repr" }
%"class.i18n::phonenumbers::StringPiece" = type { ptr, i64 }

@_ZN4i18n12phonenumbers11StringPiece4nposE = external constant i64, align 8
@.str.9 = private unnamed_addr constant [4 x i8] c"\EF\BF\BD\00", align 1

; Function Attrs: mustprogress nounwind uwtable
define linkonce_odr dso_local void @_ZN4i18n12phonenumbers11StringPieceC2EPKcm(ptr noundef nonnull align 8 dereferenceable(16) %0, ptr noundef %1, i64 noundef %2) unnamed_addr #1 comdat align 2 {
  %4 = alloca ptr, align 8
  %5 = alloca ptr, align 8
  %6 = alloca i64, align 8
  store ptr %0, ptr %4, align 8, !tbaa !61
  store ptr %1, ptr %5, align 8, !tbaa !12
  store i64 %2, ptr %6, align 8, !tbaa !49
  %7 = load ptr, ptr %4, align 8
  %8 = getelementptr inbounds nuw %"class.i18n::phonenumbers::StringPiece", ptr %7, i32 0, i32 0
  %9 = load ptr, ptr %5, align 8, !tbaa !12
  store ptr %9, ptr %8, align 8, !tbaa !63
  %10 = getelementptr inbounds nuw %"class.i18n::phonenumbers::StringPiece", ptr %7, i32 0, i32 1
  %11 = load i64, ptr %6, align 8, !tbaa !49
  store i64 %11, ptr %10, align 8, !tbaa !65
  ret void
}

; Function Attrs: mustprogress nounwind uwtable
define linkonce_odr dso_local noundef i32 @_ZNK4i18n12phonenumbers11UnicodeText11utf8_lengthEv(ptr noundef nonnull align 8 dereferenceable(24) %0) #1 comdat align 2 {
  %2 = alloca ptr, align 8
  store ptr %0, ptr %2, align 8, !tbaa !41
  %3 = load ptr, ptr %2, align 8
  %4 = getelementptr inbounds nuw %"class.i18n::phonenumbers::UnicodeText", ptr %3, i32 0, i32 0
  %5 = getelementptr inbounds nuw %"class.i18n::phonenumbers::UnicodeText::Repr", ptr %4, i32 0, i32 1
  %6 = load i32, ptr %5, align 8, !tbaa !46
  ret i32 %6
}

; Function Attrs: mustprogress nounwind uwtable
define linkonce_odr dso_local noundef ptr @_ZNK4i18n12phonenumbers11UnicodeText9utf8_dataEv(ptr noundef nonnull align 8 dereferenceable(24) %0) #1 comdat align 2 {
  %2 = alloca ptr, align 8
  store ptr %0, ptr %2, align 8, !tbaa !41
  %3 = load ptr, ptr %2, align 8
  %4 = getelementptr inbounds nuw %"class.i18n::phonenumbers::UnicodeText", ptr %3, i32 0, i32 0
  %5 = getelementptr inbounds nuw %"class.i18n::phonenumbers::UnicodeText::Repr", ptr %4, i32 0, i32 0
  %6 = load ptr, ptr %5, align 8, !tbaa !44
  ret ptr %6
}

; Function Attrs: mustprogress uwtable
define dso_local noundef zeroext i1 @_ZNK4i18n12phonenumbers11UnicodeText18HasReplacementCharEv(ptr noundef nonnull align 8 dereferenceable(24) %0) #0 align 2 {
  %2 = alloca ptr, align 8
  %3 = alloca %"class.i18n::phonenumbers::StringPiece", align 8
  %4 = alloca %"class.i18n::phonenumbers::StringPiece", align 8
  store ptr %0, ptr %2, align 8, !tbaa !41
  %5 = load ptr, ptr %2, align 8
  call void @llvm.lifetime.start.p0(i64 16, ptr %3) #15
  %6 = call noundef ptr @_ZNK4i18n12phonenumbers11UnicodeText9utf8_dataEv(ptr noundef nonnull align 8 dereferenceable(24) %5)
  %7 = call noundef i32 @_ZNK4i18n12phonenumbers11UnicodeText11utf8_lengthEv(ptr noundef nonnull align 8 dereferenceable(24) %5)
  %8 = sext i32 %7 to i64
  call void @_ZN4i18n12phonenumbers11StringPieceC2EPKcm(ptr noundef nonnull align 8 dereferenceable(16) %3, ptr noundef %6, i64 noundef %8)
  call void @llvm.lifetime.start.p0(i64 16, ptr %4) #15
  call void @_ZN4i18n12phonenumbers11StringPieceC2EPKcm(ptr noundef nonnull align 8 dereferenceable(16) %4, ptr noundef @.str.9, i64 noundef 3)
  %9 = call noundef i64 @_ZNK4i18n12phonenumbers11StringPiece4findERKS1_m(ptr noundef nonnull align 8 dereferenceable(16) %3, ptr noundef nonnull align 8 dereferenceable(16) %4, i64 noundef 0)
  %10 = load i64, ptr @_ZN4i18n12phonenumbers11StringPiece4nposE, align 8, !tbaa !49
  %11 = icmp ne i64 %9, %10
  call void @llvm.lifetime.end.p0(i64 16, ptr %4) #15
  call void @llvm.lifetime.end.p0(i64 16, ptr %3) #15
  ret i1 %11
}