; Function Attrs: mustprogress uwtable
define dso_local noundef zeroext i1 @_ZNK4i18n12phonenumbers11UnicodeText18HasReplacementCharEv(ptr noundef nonnull readonly align 8 captures(none) dereferenceable(24) %0) local_unnamed_addr #1 align 2 {
  %2 = alloca %"class.i18n::phonenumbers::StringPiece", align 8
  %3 = alloca %"class.i18n::phonenumbers::StringPiece", align 8
  call void @llvm.lifetime.start.p0(i64 16, ptr nonnull %2) #27
  %4 = load ptr, ptr %0, align 8, !tbaa !44
  %5 = getelementptr inbounds nuw i8, ptr %0, i64 8
  %6 = load i32, ptr %5, align 8, !tbaa !46
  %7 = sext i32 %6 to i64
  store ptr %4, ptr %2, align 8, !tbaa !70
  %8 = getelementptr inbounds nuw i8, ptr %2, i64 8
  store i64 %7, ptr %8, align 8, !tbaa !72
  call void @llvm.lifetime.start.p0(i64 16, ptr nonnull %3) #27
  store ptr @.str.9, ptr %3, align 8, !tbaa !70
  %9 = getelementptr inbounds nuw i8, ptr %3, i64 8
  store i64 3, ptr %9, align 8, !tbaa !72
  %10 = call noundef i64 @_ZNK4i18n12phonenumbers11StringPiece4findERKS1_m(ptr noundef nonnull align 8 dereferenceable(16) %2, ptr noundef nonnull align 8 dereferenceable(16) %3, i64 noundef 0)
  %11 = load i64, ptr @_ZN4i18n12phonenumbers11StringPiece4nposE, align 8, !tbaa !47
  %12 = icmp ne i64 %10, %11
  call void @llvm.lifetime.end.p0(i64 16, ptr nonnull %3) #27
  call void @llvm.lifetime.end.p0(i64 16, ptr nonnull %2) #27
  ret i1 %12
}